target datalayout = "e-m:e-p270:32:32-p271:32:32-p272:64:64-i64:64-i128:128-f80:128-n8:16:32:64-S128"
target triple = "x86_64-pc-linux-gnu"

%"struct.icu_77::Norm" = type { ptr, ptr, i32, i32, i32, ptr, i8, i8, i8, i8, i8, i8, i32, i32, ptr }
%"class.icu_77::Norms" = type { %"class.icu_77::UnicodeSet", %"class.icu_77::UnicodeSet", ptr, ptr, ptr }
%"class.icu_77::UnicodeSet" = type <{ %"class.icu_77::UnicodeFilter", ptr, i32, i32, i8, [7 x i8], ptr, ptr, i32, [4 x i8], ptr, i32, [4 x i8], ptr, ptr, [25 x i32], [4 x i8] }>
%"class.icu_77::UnicodeFilter" = type { %"class.icu_77::UnicodeFunctor", %"class.icu_77::UnicodeMatcher" }
%"class.icu_77::UnicodeFunctor" = type { %"class.icu_77::UObject" }
%"class.icu_77::UObject" = type { ptr }
%"class.icu_77::UnicodeMatcher" = type { ptr }

; Function Attrs: mustprogress uwtable
define dso_local noundef ptr @_ZNK6icu_775Norms7getNormEi(ptr noundef nonnull align 8 dereferenceable(424) %0, i32 noundef %1) #0 align 2 {
  %3 = alloca ptr, align 8
  %4 = alloca ptr, align 8
  %5 = alloca i32, align 4
  %6 = alloca i32, align 4
  %7 = alloca i32, align 4
  store ptr %0, ptr %4, align 8, !tbaa !38
  store i32 %1, ptr %5, align 4, !tbaa !9
  %8 = load ptr, ptr %4, align 8
  call void @llvm.lifetime.start.p0(i64 4, ptr %6) #11
  %9 = getelementptr inbounds nuw %"class.icu_77::Norms", ptr %8, i32 0, i32 2
  %10 = load ptr, ptr %9, align 8, !tbaa !41
  %11 = load i32, ptr %5, align 4, !tbaa !9
  %12 = call i32 @umutablecptrie_get_77(ptr noundef %10, i32 noundef %11)
  store i32 %12, ptr %6, align 4, !tbaa !9
  %13 = load i32, ptr %6, align 4, !tbaa !9
  %14 = icmp eq i32 %13, 0
  br i1 %14, label %15, label %16

15:                                               ; preds = %2
  store ptr null, ptr %3, align 8
  store i32 1, ptr %7, align 4
  br label %22

16:                                               ; preds = %2
  %17 = getelementptr inbounds nuw %"class.icu_77::Norms", ptr %8, i32 0, i32 4
  %18 = load ptr, ptr %17, align 8, !tbaa !55
  %19 = load i32, ptr %6, align 4, !tbaa !9
  %20 = zext i32 %19 to i64
  %21 = getelementptr inbounds nuw %"struct.icu_77::Norm", ptr %18, i64 %20
  store ptr %21, ptr %3, align 8
  store i32 1, ptr %7, align 4
  br label %22

22:                                               ; preds = %16, %15
  call void @llvm.lifetime.end.p0(i64 4, ptr %6) #11
  %23 = load ptr, ptr %3, align 8
  ret ptr %23
}